target datalayout = "e-m:e-p270:32:32-p271:32:32-p272:64:64-i64:64-i128:128-f80:128-n8:16:32:64-S128"
target triple = "x86_64-pc-linux-gnu"

@hf_fcfzs_zonesetnmlen = internal global i32 0, align 4
@hf_fcfzs_zonesetname = internal global i32 0, align 4
@hf_fcfzs_zonenmlen = internal global i32 0, align 4
@hf_fcfzs_zonename = internal global i32 0, align 4

; Function Attrs: null_pointer_is_valid sspstrong uwtable
define internal void @dissect_fcfzs_arzd(ptr noundef %0, ptr noundef %1, i1 noundef zeroext %2) #0 {
  %4 = alloca ptr, align 8
  %5 = alloca ptr, align 8
  %6 = alloca i8, align 1
  %7 = alloca i32, align 4
  %8 = alloca i32, align 4
  store ptr %0, ptr %4, align 8
  store ptr %1, ptr %5, align 8
  %9 = zext i1 %2 to i8
  store i8 %9, ptr %6, align 1
  call void @llvm.lifetime.start.p0(i64 4, ptr %7) #5
  store i32 16, ptr %7, align 4
  call void @llvm.lifetime.start.p0(i64 4, ptr %8) #5
  %10 = load ptr, ptr %5, align 8
  %11 = icmp ne ptr %10, null
  br i1 %11, label %12, label %56

12:                                               ; preds = %3
  %13 = load i8, ptr %6, align 1, !range !6, !noundef !7
  %14 = trunc i8 %13 to i1
  br i1 %14, label %15, label %55

15:                                               ; preds = %12
  %16 = load ptr, ptr %4, align 8
  %17 = load i32, ptr %7, align 4
  %18 = call zeroext i8 @tvb_get_uint8(ptr noundef %16, i32 noundef %17)
  %19 = zext i8 %18 to i32
  store i32 %19, ptr %8, align 4
  %20 = load ptr, ptr %5, align 8
  %21 = load i32, ptr @hf_fcfzs_zonesetnmlen, align 4
  %22 = load ptr, ptr %4, align 8
  %23 = load i32, ptr %7, align 4
  %24 = call ptr @proto_tree_add_item(ptr noundef %20, i32 noundef %21, ptr noundef %22, i32 noundef %23, i32 noundef 1, i32 noundef 0)
  %25 = load ptr, ptr %5, align 8
  %26 = load i32, ptr @hf_fcfzs_zonesetname, align 4
  %27 = load ptr, ptr %4, align 8
  %28 = load i32, ptr %7, align 4
  %29 = add i32 %28, 4
  %30 = load i32, ptr %8, align 4
  %31 = call ptr @proto_tree_add_item(ptr noundef %25, i32 noundef %26, ptr noundef %27, i32 noundef %29, i32 noundef %30, i32 noundef 0)
  %32 = load i32, ptr %8, align 4
  %33 = srem i32 %32, 4
  %34 = load i32, ptr %8, align 4
  %35 = add i32 %34, %33
  store i32 %35, ptr %8, align 4
  %36 = load i32, ptr %8, align 4
  %37 = load i32, ptr %7, align 4
  %38 = add i32 %37, %36
  store i32 %38, ptr %7, align 4
  %39 = load ptr, ptr %4, align 8
  %40 = load i32, ptr %7, align 4
  %41 = call zeroext i8 @tvb_get_uint8(ptr noundef %39, i32 noundef %40)
  %42 = zext i8 %41 to i32
  store i32 %42, ptr %8, align 4
  %43 = load ptr, ptr %5, align 8
  %44 = load i32, ptr @hf_fcfzs_zonenmlen, align 4
  %45 = load ptr, ptr %4, align 8
  %46 = load i32, ptr %7, align 4
  %47 = call ptr @proto_tree_add_item(ptr noundef %43, i32 noundef %44, ptr noundef %45, i32 noundef %46, i32 noundef 1, i32 noundef 0)
  %48 = load ptr, ptr %5, align 8
  %49 = load i32, ptr @hf_fcfzs_zonename, align 4
  %50 = load ptr, ptr %4, align 8
  %51 = load i32, ptr %7, align 4
  %52 = add i32 %51, 4
  %53 = load i32, ptr %8, align 4
  %54 = call ptr @proto_tree_add_item(ptr noundef %48, i32 noundef %49, ptr noundef %50, i32 noundef %52, i32 noundef %53, i32 noundef 0)
  br label %55

55:                                               ; preds = %15, %12
  br label %56

56:                                               ; preds = %55, %3
  call void @llvm.lifetime.end.p0(i64 4, ptr %8) #5
  call void @llvm.lifetime.end.p0(i64 4, ptr %7) #5
  ret void
}