; Function Attrs: null_pointer_is_valid sspstrong uwtable
define internal fastcc void @dissect_fcfzs_arzd(ptr noundef %0, ptr noundef %1, i1 noundef zeroext %2) unnamed_addr #0 {
  %.not = icmp ne ptr %1, null
  %brmerge.not = and i1 %.not, %2
  br i1 %brmerge.not, label %4, label %21

4:                                                ; preds = %3
  %5 = tail call zeroext i8 @tvb_get_uint8(ptr noundef %0, i32 noundef 16)
  %6 = zext i8 %5 to i32
  %7 = load i32, ptr @hf_fcfzs_zonesetnmlen, align 4
  %8 = tail call ptr @proto_tree_add_item(ptr noundef nonnull %1, i32 noundef %7, ptr noundef %0, i32 noundef 16, i32 noundef 1, i32 noundef 0)
  %9 = load i32, ptr @hf_fcfzs_zonesetname, align 4
  %10 = tail call ptr @proto_tree_add_item(ptr noundef nonnull %1, i32 noundef %9, ptr noundef %0, i32 noundef 20, i32 noundef %6, i32 noundef 0)
  %11 = and i32 %6, 3
  %12 = add nuw nsw i32 %11, %6
  %13 = add nuw nsw i32 %12, 16
  %14 = tail call zeroext i8 @tvb_get_uint8(ptr noundef %0, i32 noundef %13)
  %15 = zext i8 %14 to i32
  %16 = load i32, ptr @hf_fcfzs_zonenmlen, align 4
  %17 = tail call ptr @proto_tree_add_item(ptr noundef nonnull %1, i32 noundef %16, ptr noundef %0, i32 noundef %13, i32 noundef 1, i32 noundef 0)
  %18 = load i32, ptr @hf_fcfzs_zonename, align 4
  %19 = add nuw nsw i32 %12, 20
  %20 = tail call ptr @proto_tree_add_item(ptr noundef nonnull %1, i32 noundef %18, ptr noundef %0, i32 noundef %19, i32 noundef %15, i32 noundef 0)
  br label %21

21:                                               ; preds = %3, %4
  ret void
}